target datalayout = "e-m:e-p270:32:32-p271:32:32-p272:64:64-i64:64-i128:128-f80:128-n8:16:32:64-S128"
target triple = "x86_64-pc-linux-gnu"

%"struct.boost::wave::cpplexer::re2clex::tag_aq_queuetype" = type { i64, i64, i64, i64, ptr }

; Function Attrs: mustprogress nounwind uwtable
define noundef i32 @_ZN5boost4wave8cpplexer7re2clex6aq_popEPNS2_16tag_aq_queuetypeE(ptr noundef %0) #0 {
  %2 = alloca i32, align 4
  %3 = alloca ptr, align 8
  store ptr %0, ptr %3, align 8, !tbaa !3
  %4 = load ptr, ptr %3, align 8, !tbaa !3
  %5 = getelementptr inbounds nuw %"struct.boost::wave::cpplexer::re2clex::tag_aq_queuetype", ptr %4, i32 0, i32 2
  %6 = load i64, ptr %5, align 8, !tbaa !14
  %7 = icmp eq i64 %6, 0
  br i1 %7, label %8, label %9

8:                                                ; preds = %1
  store i32 0, ptr %2, align 4
  br label %29

9:                                                ; preds = %1
  %10 = load ptr, ptr %3, align 8, !tbaa !3
  %11 = getelementptr inbounds nuw %"struct.boost::wave::cpplexer::re2clex::tag_aq_queuetype", ptr %10, i32 0, i32 0
  %12 = load i64, ptr %11, align 8, !tbaa !13
  %13 = add i64 %12, 1
  store i64 %13, ptr %11, align 8, !tbaa !13
  %14 = load ptr, ptr %3, align 8, !tbaa !3
  %15 = getelementptr inbounds nuw %"struct.boost::wave::cpplexer::re2clex::tag_aq_queuetype", ptr %14, i32 0, i32 0
  %16 = load i64, ptr %15, align 8, !tbaa !13
  %17 = load ptr, ptr %3, align 8, !tbaa !3
  %18 = getelementptr inbounds nuw %"struct.boost::wave::cpplexer::re2clex::tag_aq_queuetype", ptr %17, i32 0, i32 3
  %19 = load i64, ptr %18, align 8, !tbaa !7
  %20 = icmp eq i64 %16, %19
  br i1 %20, label %21, label %24

21:                                               ; preds = %9
  %22 = load ptr, ptr %3, align 8, !tbaa !3
  %23 = getelementptr inbounds nuw %"struct.boost::wave::cpplexer::re2clex::tag_aq_queuetype", ptr %22, i32 0, i32 0
  store i64 0, ptr %23, align 8, !tbaa !13
  br label %24

24:                                               ; preds = %21, %9
  %25 = load ptr, ptr %3, align 8, !tbaa !3
  %26 = getelementptr inbounds nuw %"struct.boost::wave::cpplexer::re2clex::tag_aq_queuetype", ptr %25, i32 0, i32 2
  %27 = load i64, ptr %26, align 8, !tbaa !14
  %28 = add i64 %27, -1
  store i64 %28, ptr %26, align 8, !tbaa !14
  store i32 1, ptr %2, align 4
  br label %29

29:                                               ; preds = %24, %8
  %30 = load i32, ptr %2, align 4
  ret i32 %30
}