; Function Attrs: mustprogress nofree norecurse nosync nounwind willreturn memory(argmem: readwrite) uwtable
define noundef range(i32 0, 2) i32 @_ZN5boost4wave8cpplexer7re2clex6aq_popEPNS2_16tag_aq_queuetypeE(ptr nocapture noundef %0) local_unnamed_addr #4 {
  %2 = getelementptr inbounds nuw i8, ptr %0, i64 16
  %3 = load i64, ptr %2, align 8, !tbaa !12
  %4 = icmp eq i64 %3, 0
  br i1 %4, label %12, label %5

5:                                                ; preds = %1
  %6 = load i64, ptr %0, align 8, !tbaa !11
  %7 = add i64 %6, 1
  %8 = getelementptr inbounds nuw i8, ptr %0, i64 24
  %9 = load i64, ptr %8, align 8, !tbaa !3
  %10 = icmp eq i64 %7, %9
  %spec.store.select = select i1 %10, i64 0, i64 %7
  store i64 %spec.store.select, ptr %0, align 8
  %11 = add i64 %3, -1
  store i64 %11, ptr %2, align 8, !tbaa !12
  br label %12

12:                                               ; preds = %1, %5
  %.0 = phi i32 [ 1, %5 ], [ 0, %1 ]
  ret i32 %.0
}